In archive libArduinoSecretPatternLock.a:

LedFeedbacker.o:     file format elf32-avr

Sections:
Idx Name          Size      VMA       LMA       File off  Algn
  0 .group        00000008  00000000  00000000  00000034  2**2
                  CONTENTS, READONLY, EXCLUDE, GROUP, LINK_ONCE_DISCARD
  1 .text         00000000  00000000  00000000  0000003c  2**0
                  CONTENTS, ALLOC, LOAD, READONLY, CODE
  2 .data         00000000  00000000  00000000  0000003c  2**0
                  CONTENTS, ALLOC, LOAD, DATA
  3 .bss          00000000  00000000  00000000  0000003c  2**0
                  ALLOC
  4 .text._ZN13LedFeedbacker12sendFeedbackEN10Feedbacker8FeedbackE 0000007e  00000000  00000000  0000003c  2**0
                  CONTENTS, ALLOC, LOAD, RELOC, READONLY, CODE
  5 .text._ZN13LedFeedbackerC2Ei 00000016  00000000  00000000  000000ba  2**0
                  CONTENTS, ALLOC, LOAD, RELOC, READONLY, CODE
  6 .rodata._ZTV13LedFeedbacker 00000006  00000000  00000000  000000d0  2**0
                  CONTENTS, ALLOC, LOAD, RELOC, READONLY, DATA
  7 .comment      00000012  00000000  00000000  000000d6  2**0
                  CONTENTS, READONLY

Disassembly of section .text._ZN13LedFeedbacker12sendFeedbackEN10Feedbacker8FeedbackE:

00000000 <_ZN13LedFeedbacker12sendFeedbackEN10Feedbacker8FeedbackE>:
   0:	0f 93       	push	r16
   2:	1f 93       	push	r17
   4:	cf 93       	push	r28
   6:	df 93       	push	r29
   8:	8c 01       	movw	r16, r24
   a:	63 30       	cpi	r22, 0x03	; 3
   c:	01 f0       	breq	.+0      	; 0xe <_ZN13LedFeedbacker12sendFeedbackEN10Feedbacker8FeedbackE+0xe>
   e:	00 f4       	brcc	.+0      	; 0x10 <_ZN13LedFeedbacker12sendFeedbackEN10Feedbacker8FeedbackE+0x10>
  10:	66 23       	and	r22, r22
  12:	01 f0       	breq	.+0      	; 0x14 <_ZN13LedFeedbacker12sendFeedbackEN10Feedbacker8FeedbackE+0x14>
  14:	61 30       	cpi	r22, 0x01	; 1
  16:	01 f4       	brne	.+0      	; 0x18 <_ZN13LedFeedbacker12sendFeedbackEN10Feedbacker8FeedbackE+0x18>
  18:	c1 e0       	ldi	r28, 0x01	; 1
  1a:	00 c0       	rjmp	.+0      	; 0x1c <_ZN13LedFeedbacker12sendFeedbackEN10Feedbacker8FeedbackE+0x1c>
  1c:	64 30       	cpi	r22, 0x04	; 4
  1e:	01 f0       	breq	.+0      	; 0x20 <_ZN13LedFeedbacker12sendFeedbackEN10Feedbacker8FeedbackE+0x20>
  20:	65 30       	cpi	r22, 0x05	; 5
  22:	01 f4       	brne	.+0      	; 0x24 <_ZN13LedFeedbacker12sendFeedbackEN10Feedbacker8FeedbackE+0x24>
  24:	c4 e0       	ldi	r28, 0x04	; 4
  26:	00 c0       	rjmp	.+0      	; 0x28 <_ZN13LedFeedbacker12sendFeedbackEN10Feedbacker8FeedbackE+0x28>
  28:	61 e0       	ldi	r22, 0x01	; 1
  2a:	00 c0       	rjmp	.+0      	; 0x2c <_ZN13LedFeedbacker12sendFeedbackEN10Feedbacker8FeedbackE+0x2c>
  2c:	60 e0       	ldi	r22, 0x00	; 0
  2e:	f8 01       	movw	r30, r16
  30:	82 81       	ldd	r24, Z+2	; 0x02
  32:	0e 94 00 00 	call	0	; 0x0 <_ZN13LedFeedbacker12sendFeedbackEN10Feedbacker8FeedbackE>
  36:	00 c0       	rjmp	.+0      	; 0x38 <_ZN13LedFeedbacker12sendFeedbackEN10Feedbacker8FeedbackE+0x38>
  38:	c2 e0       	ldi	r28, 0x02	; 2
  3a:	00 c0       	rjmp	.+0      	; 0x3c <_ZN13LedFeedbacker12sendFeedbackEN10Feedbacker8FeedbackE+0x3c>
  3c:	c0 e0       	ldi	r28, 0x00	; 0
  3e:	d0 e0       	ldi	r29, 0x00	; 0
  40:	dc 17       	cp	r29, r28
  42:	01 f0       	breq	.+0      	; 0x44 <_ZN13LedFeedbacker12sendFeedbackEN10Feedbacker8FeedbackE+0x44>
  44:	61 e0       	ldi	r22, 0x01	; 1
  46:	f8 01       	movw	r30, r16
  48:	82 81       	ldd	r24, Z+2	; 0x02
  4a:	0e 94 00 00 	call	0	; 0x0 <_ZN13LedFeedbacker12sendFeedbackEN10Feedbacker8FeedbackE>
  4e:	64 e6       	ldi	r22, 0x64	; 100
  50:	70 e0       	ldi	r23, 0x00	; 0
  52:	80 e0       	ldi	r24, 0x00	; 0
  54:	90 e0       	ldi	r25, 0x00	; 0
  56:	0e 94 00 00 	call	0	; 0x0 <_ZN13LedFeedbacker12sendFeedbackEN10Feedbacker8FeedbackE>
  5a:	60 e0       	ldi	r22, 0x00	; 0
  5c:	f8 01       	movw	r30, r16
  5e:	82 81       	ldd	r24, Z+2	; 0x02
  60:	0e 94 00 00 	call	0	; 0x0 <_ZN13LedFeedbacker12sendFeedbackEN10Feedbacker8FeedbackE>
  64:	64 e6       	ldi	r22, 0x64	; 100
  66:	70 e0       	ldi	r23, 0x00	; 0
  68:	80 e0       	ldi	r24, 0x00	; 0
  6a:	90 e0       	ldi	r25, 0x00	; 0
  6c:	0e 94 00 00 	call	0	; 0x0 <_ZN13LedFeedbacker12sendFeedbackEN10Feedbacker8FeedbackE>
  70:	df 5f       	subi	r29, 0xFF	; 255
  72:	00 c0       	rjmp	.+0      	; 0x74 <_ZN13LedFeedbacker12sendFeedbackEN10Feedbacker8FeedbackE+0x74>
  74:	df 91       	pop	r29
  76:	cf 91       	pop	r28
  78:	1f 91       	pop	r17
  7a:	0f 91       	pop	r16
  7c:	08 95       	ret

Disassembly of section .text._ZN13LedFeedbackerC2Ei:

00000000 <_ZN13LedFeedbackerC1Ei>:
   0:	fc 01       	movw	r30, r24
   2:	86 2f       	mov	r24, r22
   4:	20 e0       	ldi	r18, 0x00	; 0
   6:	30 e0       	ldi	r19, 0x00	; 0
   8:	31 83       	std	Z+1, r19	; 0x01
   a:	20 83       	st	Z, r18
   c:	62 83       	std	Z+2, r22	; 0x02
   e:	73 83       	std	Z+3, r23	; 0x03
  10:	61 e0       	ldi	r22, 0x01	; 1
  12:	0c 94 00 00 	jmp	0	; 0x0 <_ZN13LedFeedbackerC1Ei>

KnockLock.o:     file format elf32-avr

Sections:
Idx Name          Size      VMA       LMA       File off  Algn
  0 .text         00000000  00000000  00000000  00000034  2**0
                  CONTENTS, ALLOC, LOAD, READONLY, CODE
  1 .data         00000000  00000000  00000000  00000034  2**0
                  CONTENTS, ALLOC, LOAD, DATA
  2 .bss          00000000  00000000  00000000  00000034  2**0
                  ALLOC
  3 .text._ZN9KnockLockC2EiiiP10FeedbackerP12RandomAccess 00000032  00000000  00000000  00000034  2**0
                  CONTENTS, ALLOC, LOAD, READONLY, CODE
  4 .text._ZN9KnockLock3bipEj 00000056  00000000  00000000  00000066  2**0
                  CONTENTS, ALLOC, LOAD, RELOC, READONLY, CODE
  5 .text._ZN9KnockLock8playbackEv 00000056  00000000  00000000  000000bc  2**0
                  CONTENTS, ALLOC, LOAD, RELOC, READONLY, CODE
  6 .text._ZN9KnockLock15normalizeKnocksEv 000000c4  00000000  00000000  00000112  2**0
                  CONTENTS, ALLOC, LOAD, RELOC, READONLY, CODE
  7 .text._ZN9KnockLock20doKnocksMatchPatternEv 00000052  00000000  00000000  000001d6  2**0
                  CONTENTS, ALLOC, LOAD, RELOC, READONLY, CODE
  8 .text._ZN9KnockLock16enterProgramModeEv 00000082  00000000  00000000  00000228  2**0
                  CONTENTS, ALLOC, LOAD, RELOC, READONLY, CODE
  9 .text._ZN9KnockLock15exitProgramModeEv 00000020  00000000  00000000  000002aa  2**0
                  CONTENTS, ALLOC, LOAD, READONLY, CODE
 10 .text._ZN9KnockLock15isInProgramModeEv 00000006  00000000  00000000  000002ca  2**0
                  CONTENTS, ALLOC, LOAD, READONLY, CODE
 11 .text._ZN9KnockLock10knockDelayEv 0000003c  00000000  00000000  000002d0  2**0
                  CONTENTS, ALLOC, LOAD, RELOC, READONLY, CODE
 12 .text._ZN9KnockLock13processKnocksEv 0000009a  00000000  00000000  0000030c  2**0
                  CONTENTS, ALLOC, LOAD, RELOC, READONLY, CODE
 13 .text._ZN9KnockLock11loadPatternEv 000000b8  00000000  00000000  000003a6  2**0
                  CONTENTS, ALLOC, LOAD, RELOC, READONLY, CODE
 14 .text._ZN9KnockLock10initializeEv 00000028  00000000  00000000  0000045e  2**0
                  CONTENTS, ALLOC, LOAD, RELOC, READONLY, CODE
 15 .text._ZN9KnockLock11savePatternEv 000000ea  00000000  00000000  00000486  2**0
                  CONTENTS, ALLOC, LOAD, RELOC, READONLY, CODE
 16 .text._ZN9KnockLock14validateKnocksEv 00000042  00000000  00000000  00000570  2**0
                  CONTENTS, ALLOC, LOAD, RELOC, READONLY, CODE
 17 .text._ZN9KnockLock6listenEm 000000ca  00000000  00000000  000005b2  2**0
                  CONTENTS, ALLOC, LOAD, RELOC, READONLY, CODE
 18 .comment      00000012  00000000  00000000  0000067c  2**0
                  CONTENTS, READONLY

Disassembly of section .text._ZN9KnockLockC2EiiiP10FeedbackerP12RandomAccess:

00000000 <_ZN9KnockLockC1EiiiP10FeedbackerP12RandomAccess>:
   0:	ef 92       	push	r14
   2:	ff 92       	push	r15
   4:	0f 93       	push	r16
   6:	1f 93       	push	r17
   8:	fc 01       	movw	r30, r24
   a:	71 83       	std	Z+1, r23	; 0x01
   c:	60 83       	st	Z, r22
   e:	53 83       	std	Z+3, r21	; 0x03
  10:	42 83       	std	Z+2, r20	; 0x02
  12:	35 83       	std	Z+5, r19	; 0x05
  14:	24 83       	std	Z+4, r18	; 0x04
  16:	17 83       	std	Z+7, r17	; 0x07
  18:	06 83       	std	Z+6, r16	; 0x06
  1a:	f1 86       	std	Z+9, r15	; 0x09
  1c:	e0 86       	std	Z+8, r14	; 0x08
  1e:	13 86       	std	Z+11, r1	; 0x0b
  20:	12 86       	std	Z+10, r1	; 0x0a
  22:	15 86       	std	Z+13, r1	; 0x0d
  24:	14 86       	std	Z+12, r1	; 0x0c
  26:	16 86       	std	Z+14, r1	; 0x0e
  28:	1f 91       	pop	r17
  2a:	0f 91       	pop	r16
  2c:	ff 90       	pop	r15
  2e:	ef 90       	pop	r14
  30:	08 95       	ret

Disassembly of section .text._ZN9KnockLock3bipEj:

00000000 <_ZN9KnockLock3bipEj>:
   0:	ef 92       	push	r14
   2:	ff 92       	push	r15
   4:	0f 93       	push	r16
   6:	1f 93       	push	r17
   8:	cf 93       	push	r28
   a:	df 93       	push	r29
   c:	8c 01       	movw	r16, r24
   e:	cb 01       	movw	r24, r22
  10:	6a e0       	ldi	r22, 0x0A	; 10
  12:	70 e0       	ldi	r23, 0x00	; 0
  14:	0e 94 00 00 	call	0	; 0x0 <_ZN9KnockLock3bipEj>
  18:	7b 01       	movw	r14, r22
  1a:	c0 e0       	ldi	r28, 0x00	; 0
  1c:	d0 e0       	ldi	r29, 0x00	; 0
  1e:	ce 15       	cp	r28, r14
  20:	df 05       	cpc	r29, r15
  22:	01 f0       	breq	.+0      	; 0x24 <_ZN9KnockLock3bipEj+0x24>
  24:	61 e0       	ldi	r22, 0x01	; 1
  26:	f8 01       	movw	r30, r16
  28:	84 81       	ldd	r24, Z+4	; 0x04
  2a:	0e 94 00 00 	call	0	; 0x0 <_ZN9KnockLock3bipEj>
  2e:	6a e0       	ldi	r22, 0x0A	; 10
  30:	70 e0       	ldi	r23, 0x00	; 0
  32:	80 e0       	ldi	r24, 0x00	; 0
  34:	90 e0       	ldi	r25, 0x00	; 0
  36:	0e 94 00 00 	call	0	; 0x0 <_ZN9KnockLock3bipEj>
  3a:	60 e0       	ldi	r22, 0x00	; 0
  3c:	f8 01       	movw	r30, r16
  3e:	84 81       	ldd	r24, Z+4	; 0x04
  40:	0e 94 00 00 	call	0	; 0x0 <_ZN9KnockLock3bipEj>
  44:	21 96       	adiw	r28, 0x01	; 1
  46:	00 c0       	rjmp	.+0      	; 0x48 <_ZN9KnockLock3bipEj+0x48>
  48:	df 91       	pop	r29
  4a:	cf 91       	pop	r28
  4c:	1f 91       	pop	r17
  4e:	0f 91       	pop	r16
  50:	ff 90       	pop	r15
  52:	ef 90       	pop	r14
  54:	08 95       	ret

Disassembly of section .text._ZN9KnockLock8playbackEv:

00000000 <_ZN9KnockLock8playbackEv>:
   0:	ff 92       	push	r15
   2:	0f 93       	push	r16
   4:	1f 93       	push	r17
   6:	cf 93       	push	r28
   8:	df 93       	push	r29
   a:	ec 01       	movw	r28, r24
   c:	f1 2c       	mov	r15, r1
   e:	0f 2d       	mov	r16, r15
  10:	10 e0       	ldi	r17, 0x00	; 0
  12:	8a 85       	ldd	r24, Y+10	; 0x0a
  14:	9b 85       	ldd	r25, Y+11	; 0x0b
  16:	64 e6       	ldi	r22, 0x64	; 100
  18:	70 e0       	ldi	r23, 0x00	; 0
  1a:	08 17       	cp	r16, r24
  1c:	19 07       	cpc	r17, r25
  1e:	04 f4       	brge	.+0      	; 0x20 <_ZN9KnockLock8playbackEv+0x20>
  20:	ce 01       	movw	r24, r28
  22:	0e 94 00 00 	call	0	; 0x0 <_ZN9KnockLock8playbackEv>
  26:	fe 01       	movw	r30, r28
  28:	e0 0f       	add	r30, r16
  2a:	f1 1f       	adc	r31, r17
  2c:	67 85       	ldd	r22, Z+15	; 0x0f
  2e:	85 e0       	ldi	r24, 0x05	; 5
  30:	68 9f       	mul	r22, r24
  32:	b0 01       	movw	r22, r0
  34:	11 24       	eor	r1, r1
  36:	07 2e       	mov	r0, r23
  38:	00 0c       	add	r0, r0
  3a:	88 0b       	sbc	r24, r24
  3c:	99 0b       	sbc	r25, r25
  3e:	0e 94 00 00 	call	0	; 0x0 <_ZN9KnockLock8playbackEv>
  42:	f3 94       	inc	r15
  44:	00 c0       	rjmp	.+0      	; 0x46 <_ZN9KnockLock8playbackEv+0x46>
  46:	ce 01       	movw	r24, r28
  48:	df 91       	pop	r29
  4a:	cf 91       	pop	r28
  4c:	1f 91       	pop	r17
  4e:	0f 91       	pop	r16
  50:	ff 90       	pop	r15
  52:	0c 94 00 00 	jmp	0	; 0x0 <_ZN9KnockLock8playbackEv>

Disassembly of section .text._ZN9KnockLock15normalizeKnocksEv:

00000000 <_ZN9KnockLock15normalizeKnocksEv>:
   0:	2f 92       	push	r2
   2:	3f 92       	push	r3
   4:	4f 92       	push	r4
   6:	5f 92       	push	r5
   8:	6f 92       	push	r6
   a:	7f 92       	push	r7
   c:	8f 92       	push	r8
   e:	9f 92       	push	r9
  10:	af 92       	push	r10
  12:	bf 92       	push	r11
  14:	cf 92       	push	r12
  16:	df 92       	push	r13
  18:	ef 92       	push	r14
  1a:	ff 92       	push	r15
  1c:	0f 93       	push	r16
  1e:	1f 93       	push	r17
  20:	cf 93       	push	r28
  22:	df 93       	push	r29
  24:	4c 01       	movw	r8, r24
  26:	fc 01       	movw	r30, r24
  28:	44 85       	ldd	r20, Z+12	; 0x0c
  2a:	55 85       	ldd	r21, Z+13	; 0x0d
  2c:	ec 01       	movw	r28, r24
  2e:	6f 96       	adiw	r28, 0x1f	; 31
  30:	fe 01       	movw	r30, r28
  32:	80 e0       	ldi	r24, 0x00	; 0
  34:	90 e0       	ldi	r25, 0x00	; 0
  36:	41 2c       	mov	r4, r1
  38:	51 2c       	mov	r5, r1
  3a:	84 17       	cp	r24, r20
  3c:	95 07       	cpc	r25, r21
  3e:	04 f4       	brge	.+0      	; 0x40 <_ZN9KnockLock15normalizeKnocksEv+0x40>
  40:	21 91       	ld	r18, Z+
  42:	31 91       	ld	r19, Z+
  44:	42 16       	cp	r4, r18
  46:	53 06       	cpc	r5, r19
  48:	00 f4       	brcc	.+0      	; 0x4a <_ZN9KnockLock15normalizeKnocksEv+0x4a>
  4a:	29 01       	movw	r4, r18
  4c:	01 96       	adiw	r24, 0x01	; 1
  4e:	00 c0       	rjmp	.+0      	; 0x50 <_ZN9KnockLock15normalizeKnocksEv+0x50>
  50:	21 2c       	mov	r2, r1
  52:	31 2c       	mov	r3, r1
  54:	61 2c       	mov	r6, r1
  56:	71 2c       	mov	r7, r1
  58:	f4 01       	movw	r30, r8
  5a:	84 85       	ldd	r24, Z+12	; 0x0c
  5c:	95 85       	ldd	r25, Z+13	; 0x0d
  5e:	28 16       	cp	r2, r24
  60:	39 06       	cpc	r3, r25
  62:	04 f4       	brge	.+0      	; 0x64 <_ZN9KnockLock15normalizeKnocksEv+0x64>
  64:	68 81       	ld	r22, Y
  66:	79 81       	ldd	r23, Y+1	; 0x01
  68:	80 e0       	ldi	r24, 0x00	; 0
  6a:	90 e0       	ldi	r25, 0x00	; 0
  6c:	1f 92       	push	r1
  6e:	1f 92       	push	r1
  70:	1f 92       	push	r1
  72:	f4 e6       	ldi	r31, 0x64	; 100
  74:	ff 93       	push	r31
  76:	a1 2c       	mov	r10, r1
  78:	b1 2c       	mov	r11, r1
  7a:	65 01       	movw	r12, r10
  7c:	83 01       	movw	r16, r6
  7e:	72 01       	movw	r14, r4
  80:	20 e0       	ldi	r18, 0x00	; 0
  82:	30 e0       	ldi	r19, 0x00	; 0
  84:	a9 01       	movw	r20, r18
  86:	0e 94 00 00 	call	0	; 0x0 <_ZN9KnockLock15normalizeKnocksEv>
  8a:	69 93       	st	Y+, r22
  8c:	79 93       	st	Y+, r23
  8e:	2f ef       	ldi	r18, 0xFF	; 255
  90:	22 1a       	sub	r2, r18
  92:	32 0a       	sbc	r3, r18
  94:	0f 90       	pop	r0
  96:	0f 90       	pop	r0
  98:	0f 90       	pop	r0
  9a:	0f 90       	pop	r0
  9c:	00 c0       	rjmp	.+0      	; 0x9e <_ZN9KnockLock15normalizeKnocksEv+0x9e>
  9e:	df 91       	pop	r29
  a0:	cf 91       	pop	r28
  a2:	1f 91       	pop	r17
  a4:	0f 91       	pop	r16
  a6:	ff 90       	pop	r15
  a8:	ef 90       	pop	r14
  aa:	df 90       	pop	r13
  ac:	cf 90       	pop	r12
  ae:	bf 90       	pop	r11
  b0:	af 90       	pop	r10
  b2:	9f 90       	pop	r9
  b4:	8f 90       	pop	r8
  b6:	7f 90       	pop	r7
  b8:	6f 90       	pop	r6
  ba:	5f 90       	pop	r5
  bc:	4f 90       	pop	r4
  be:	3f 90       	pop	r3
  c0:	2f 90       	pop	r2
  c2:	08 95       	ret

Disassembly of section .text._ZN9KnockLock20doKnocksMatchPatternEv:

00000000 <_ZN9KnockLock20doKnocksMatchPatternEv>:
   0:	cf 93       	push	r28
   2:	fc 01       	movw	r30, r24
   4:	62 85       	ldd	r22, Z+10	; 0x0a
   6:	73 85       	ldd	r23, Z+11	; 0x0b
   8:	dc 01       	movw	r26, r24
   a:	5f 96       	adiw	r26, 0x1f	; 31
   c:	3f 96       	adiw	r30, 0x0f	; 15
   e:	40 e0       	ldi	r20, 0x00	; 0
  10:	50 e0       	ldi	r21, 0x00	; 0
  12:	80 e0       	ldi	r24, 0x00	; 0
  14:	90 e0       	ldi	r25, 0x00	; 0
  16:	46 17       	cp	r20, r22
  18:	57 07       	cpc	r21, r23
  1a:	04 f4       	brge	.+0      	; 0x1c <_ZN9KnockLock20doKnocksMatchPatternEv+0x1c>
  1c:	2d 91       	ld	r18, X+
  1e:	3d 91       	ld	r19, X+
  20:	c1 91       	ld	r28, Z+
  22:	2c 1b       	sub	r18, r28
  24:	31 09       	sbc	r19, r1
  26:	37 ff       	sbrs	r19, 7
  28:	00 c0       	rjmp	.+0      	; 0x2a <_ZN9KnockLock20doKnocksMatchPatternEv+0x2a>
  2a:	31 95       	neg	r19
  2c:	21 95       	neg	r18
  2e:	31 09       	sbc	r19, r1
  30:	2a 31       	cpi	r18, 0x1A	; 26
  32:	31 05       	cpc	r19, r1
  34:	04 f4       	brge	.+0      	; 0x36 <_ZN9KnockLock20doKnocksMatchPatternEv+0x36>
  36:	82 0f       	add	r24, r18
  38:	93 1f       	adc	r25, r19
  3a:	4f 5f       	subi	r20, 0xFF	; 255
  3c:	5f 4f       	sbci	r21, 0xFF	; 255
  3e:	00 c0       	rjmp	.+0      	; 0x40 <_ZN9KnockLock20doKnocksMatchPatternEv+0x40>
  40:	0e 94 00 00 	call	0	; 0x0 <_ZN9KnockLock20doKnocksMatchPatternEv>
  44:	81 e0       	ldi	r24, 0x01	; 1
  46:	60 31       	cpi	r22, 0x10	; 16
  48:	71 05       	cpc	r23, r1
  4a:	04 f0       	brlt	.+0      	; 0x4c <_ZN9KnockLock20doKnocksMatchPatternEv+0x4c>
  4c:	80 e0       	ldi	r24, 0x00	; 0
  4e:	cf 91       	pop	r28
  50:	08 95       	ret

Disassembly of section .text._ZN9KnockLock16enterProgramModeEv:

00000000 <_ZN9KnockLock16enterProgramModeEv>:
   0:	cf 92       	push	r12
   2:	df 92       	push	r13
   4:	ef 92       	push	r14
   6:	ff 92       	push	r15
   8:	cf 93       	push	r28
   a:	df 93       	push	r29
   c:	ec 01       	movw	r28, r24
   e:	0e 94 00 00 	call	0	; 0x0 <_ZN9KnockLock16enterProgramModeEv>
  12:	6b 01       	movw	r12, r22
  14:	7c 01       	movw	r14, r24
  16:	8a 81       	ldd	r24, Y+2	; 0x02
  18:	0e 94 00 00 	call	0	; 0x0 <_ZN9KnockLock16enterProgramModeEv>
  1c:	89 2b       	or	r24, r25
  1e:	01 f0       	breq	.+0      	; 0x20 <_ZN9KnockLock16enterProgramModeEv+0x20>
  20:	0e 94 00 00 	call	0	; 0x0 <_ZN9KnockLock16enterProgramModeEv>
  24:	dc 01       	movw	r26, r24
  26:	cb 01       	movw	r24, r22
  28:	8c 19       	sub	r24, r12
  2a:	9d 09       	sbc	r25, r13
  2c:	ae 09       	sbc	r26, r14
  2e:	bf 09       	sbc	r27, r15
  30:	8c 3d       	cpi	r24, 0xDC	; 220
  32:	95 40       	sbci	r25, 0x05	; 5
  34:	a1 05       	cpc	r26, r1
  36:	b1 05       	cpc	r27, r1
  38:	00 f0       	brcs	.+0      	; 0x3a <_ZN9KnockLock16enterProgramModeEv+0x3a>
  3a:	81 e0       	ldi	r24, 0x01	; 1
  3c:	8e 87       	std	Y+14, r24	; 0x0e
  3e:	8e 81       	ldd	r24, Y+6	; 0x06
  40:	9f 81       	ldd	r25, Y+7	; 0x07
  42:	dc 01       	movw	r26, r24
  44:	ed 91       	ld	r30, X+
  46:	fc 91       	ld	r31, X
  48:	01 90       	ld	r0, Z+
  4a:	f0 81       	ld	r31, Z
  4c:	e0 2d       	mov	r30, r0
  4e:	63 e0       	ldi	r22, 0x03	; 3
  50:	09 95       	icall
  52:	8a 81       	ldd	r24, Y+2	; 0x02
  54:	0e 94 00 00 	call	0	; 0x0 <_ZN9KnockLock16enterProgramModeEv>
  58:	01 97       	sbiw	r24, 0x01	; 1
  5a:	01 f0       	breq	.+0      	; 0x5c <_ZN9KnockLock16enterProgramModeEv+0x5c>
  5c:	64 ef       	ldi	r22, 0xF4	; 244
  5e:	71 e0       	ldi	r23, 0x01	; 1
  60:	80 e0       	ldi	r24, 0x00	; 0
  62:	90 e0       	ldi	r25, 0x00	; 0
  64:	df 91       	pop	r29
  66:	cf 91       	pop	r28
  68:	ff 90       	pop	r15
  6a:	ef 90       	pop	r14
  6c:	df 90       	pop	r13
  6e:	cf 90       	pop	r12
  70:	0c 94 00 00 	jmp	0	; 0x0 <_ZN9KnockLock16enterProgramModeEv>
  74:	df 91       	pop	r29
  76:	cf 91       	pop	r28
  78:	ff 90       	pop	r15
  7a:	ef 90       	pop	r14
  7c:	df 90       	pop	r13
  7e:	cf 90       	pop	r12
  80:	08 95       	ret

Disassembly of section .text._ZN9KnockLock15exitProgramModeEv:

00000000 <_ZN9KnockLock15exitProgramModeEv>:
   0:	dc 01       	movw	r26, r24
   2:	1e 96       	adiw	r26, 0x0e	; 14
   4:	1c 92       	st	X, r1
   6:	1e 97       	sbiw	r26, 0x0e	; 14
   8:	16 96       	adiw	r26, 0x06	; 6
   a:	8d 91       	ld	r24, X+
   c:	9c 91       	ld	r25, X
   e:	17 97       	sbiw	r26, 0x07	; 7
  10:	dc 01       	movw	r26, r24
  12:	ed 91       	ld	r30, X+
  14:	fc 91       	ld	r31, X
  16:	01 90       	ld	r0, Z+
  18:	f0 81       	ld	r31, Z
  1a:	e0 2d       	mov	r30, r0
  1c:	64 e0       	ldi	r22, 0x04	; 4
  1e:	09 94       	ijmp

Disassembly of section .text._ZN9KnockLock15isInProgramModeEv:

00000000 <_ZN9KnockLock15isInProgramModeEv>:
   0:	fc 01       	movw	r30, r24
   2:	86 85       	ldd	r24, Z+14	; 0x0e
   4:	08 95       	ret

Disassembly of section .text._ZN9KnockLock10knockDelayEv:

00000000 <_ZN9KnockLock10knockDelayEv>:
   0:	0f 93       	push	r16
   2:	1f 93       	push	r17
   4:	cf 93       	push	r28
   6:	df 93       	push	r29
   8:	8c 01       	movw	r16, r24
   a:	c5 e0       	ldi	r28, 0x05	; 5
   c:	d0 e0       	ldi	r29, 0x00	; 0
   e:	6a e0       	ldi	r22, 0x0A	; 10
  10:	70 e0       	ldi	r23, 0x00	; 0
  12:	80 e0       	ldi	r24, 0x00	; 0
  14:	90 e0       	ldi	r25, 0x00	; 0
  16:	0e 94 00 00 	call	0	; 0x0 <_ZN9KnockLock10knockDelayEv>
  1a:	f8 01       	movw	r30, r16
  1c:	80 81       	ld	r24, Z
  1e:	0e 94 00 00 	call	0	; 0x0 <_ZN9KnockLock10knockDelayEv>
  22:	6a e0       	ldi	r22, 0x0A	; 10
  24:	70 e0       	ldi	r23, 0x00	; 0
  26:	80 e0       	ldi	r24, 0x00	; 0
  28:	90 e0       	ldi	r25, 0x00	; 0
  2a:	0e 94 00 00 	call	0	; 0x0 <_ZN9KnockLock10knockDelayEv>
  2e:	21 97       	sbiw	r28, 0x01	; 1
  30:	01 f4       	brne	.+0      	; 0x32 <_ZN9KnockLock10knockDelayEv+0x32>
  32:	df 91       	pop	r29
  34:	cf 91       	pop	r28
  36:	1f 91       	pop	r17
  38:	0f 91       	pop	r16
  3a:	08 95       	ret

Disassembly of section .text._ZN9KnockLock13processKnocksEv:

00000000 <_ZN9KnockLock13processKnocksEv>:
   0:	8f 92       	push	r8
   2:	9f 92       	push	r9
   4:	af 92       	push	r10
   6:	bf 92       	push	r11
   8:	cf 92       	push	r12
   a:	df 92       	push	r13
   c:	ef 92       	push	r14
   e:	ff 92       	push	r15
  10:	cf 93       	push	r28
  12:	df 93       	push	r29
  14:	ec 01       	movw	r28, r24
  16:	1d 86       	std	Y+13, r1	; 0x0d
  18:	1c 86       	std	Y+12, r1	; 0x0c
  1a:	0e 94 00 00 	call	0	; 0x0 <_ZN9KnockLock13processKnocksEv>
  1e:	6b 01       	movw	r12, r22
  20:	7c 01       	movw	r14, r24
  22:	ce 01       	movw	r24, r28
  24:	0e 94 00 00 	call	0	; 0x0 <_ZN9KnockLock13processKnocksEv>
  28:	46 01       	movw	r8, r12
  2a:	57 01       	movw	r10, r14
  2c:	88 81       	ld	r24, Y
  2e:	0e 94 00 00 	call	0	; 0x0 <_ZN9KnockLock13processKnocksEv>
  32:	81 30       	cpi	r24, 0x01	; 1
  34:	01 f4       	brne	.+0      	; 0x36 <_ZN9KnockLock13processKnocksEv+0x36>
  36:	8c 85       	ldd	r24, Y+12	; 0x0c
  38:	9d 85       	ldd	r25, Y+13	; 0x0d
  3a:	fc 01       	movw	r30, r24
  3c:	ee 0f       	add	r30, r30
  3e:	ff 1f       	adc	r31, r31
  40:	ec 0f       	add	r30, r28
  42:	fd 1f       	adc	r31, r29
  44:	94 01       	movw	r18, r8
  46:	2c 19       	sub	r18, r12
  48:	3d 09       	sbc	r19, r13
  4a:	30 a3       	std	Z+32, r19	; 0x20
  4c:	27 8f       	std	Z+31, r18	; 0x1f
  4e:	01 96       	adiw	r24, 0x01	; 1
  50:	9d 87       	std	Y+13, r25	; 0x0d
  52:	8c 87       	std	Y+12, r24	; 0x0c
  54:	ce 01       	movw	r24, r28
  56:	0e 94 00 00 	call	0	; 0x0 <_ZN9KnockLock13processKnocksEv>
  5a:	75 01       	movw	r14, r10
  5c:	64 01       	movw	r12, r8
  5e:	0e 94 00 00 	call	0	; 0x0 <_ZN9KnockLock13processKnocksEv>
  62:	4b 01       	movw	r8, r22
  64:	5c 01       	movw	r10, r24
  66:	dc 01       	movw	r26, r24
  68:	cb 01       	movw	r24, r22
  6a:	8c 19       	sub	r24, r12
  6c:	9d 09       	sbc	r25, r13
  6e:	ae 09       	sbc	r26, r14
  70:	bf 09       	sbc	r27, r15
  72:	88 3e       	cpi	r24, 0xE8	; 232
  74:	93 40       	sbci	r25, 0x03	; 3
  76:	a1 05       	cpc	r26, r1
  78:	b1 05       	cpc	r27, r1
  7a:	00 f4       	brcc	.+0      	; 0x7c <_ZN9KnockLock13processKnocksEv+0x7c>
  7c:	8c 85       	ldd	r24, Y+12	; 0x0c
  7e:	9d 85       	ldd	r25, Y+13	; 0x0d
  80:	40 97       	sbiw	r24, 0x10	; 16
  82:	04 f0       	brlt	.+0      	; 0x84 <_ZN9KnockLock13processKnocksEv+0x84>
  84:	df 91       	pop	r29
  86:	cf 91       	pop	r28
  88:	ff 90       	pop	r15
  8a:	ef 90       	pop	r14
  8c:	df 90       	pop	r13
  8e:	cf 90       	pop	r12
  90:	bf 90       	pop	r11
  92:	af 90       	pop	r10
  94:	9f 90       	pop	r9
  96:	8f 90       	pop	r8
  98:	08 95       	ret

Disassembly of section .text._ZN9KnockLock11loadPatternEv:

00000000 <_ZN9KnockLock11loadPatternEv>:
   0:	ef 92       	push	r14
   2:	ff 92       	push	r15
   4:	0f 93       	push	r16
   6:	1f 93       	push	r17
   8:	cf 93       	push	r28
   a:	df 93       	push	r29
   c:	ec 01       	movw	r28, r24
   e:	a8 85       	ldd	r26, Y+8	; 0x08
  10:	b9 85       	ldd	r27, Y+9	; 0x09
  12:	ed 91       	ld	r30, X+
  14:	fc 91       	ld	r31, X
  16:	11 97       	sbiw	r26, 0x01	; 1
  18:	b8 97       	sbiw	r30, 0x28	; 40
  1a:	80 81       	ld	r24, Z
  1c:	91 81       	ldd	r25, Z+1	; 0x01
  1e:	8a 0f       	add	r24, r26
  20:	9b 1f       	adc	r25, r27
  22:	dc 01       	movw	r26, r24
  24:	ed 91       	ld	r30, X+
  26:	fc 91       	ld	r31, X
  28:	01 90       	ld	r0, Z+
  2a:	f0 81       	ld	r31, Z
  2c:	e0 2d       	mov	r30, r0
  2e:	60 e0       	ldi	r22, 0x00	; 0
  30:	70 e0       	ldi	r23, 0x00	; 0
  32:	09 95       	icall
  34:	a8 85       	ldd	r26, Y+8	; 0x08
  36:	b9 85       	ldd	r27, Y+9	; 0x09
  38:	ed 91       	ld	r30, X+
  3a:	fc 91       	ld	r31, X
  3c:	11 97       	sbiw	r26, 0x01	; 1
  3e:	b4 97       	sbiw	r30, 0x24	; 36
  40:	80 81       	ld	r24, Z
  42:	91 81       	ldd	r25, Z+1	; 0x01
  44:	8a 0f       	add	r24, r26
  46:	9b 1f       	adc	r25, r27
  48:	dc 01       	movw	r26, r24
  4a:	ed 91       	ld	r30, X+
  4c:	fc 91       	ld	r31, X
  4e:	06 80       	ldd	r0, Z+6	; 0x06
  50:	f7 81       	ldd	r31, Z+7	; 0x07
  52:	e0 2d       	mov	r30, r0
  54:	09 95       	icall
  56:	90 e0       	ldi	r25, 0x00	; 0
  58:	81 31       	cpi	r24, 0x11	; 17
  5a:	91 05       	cpc	r25, r1
  5c:	04 f0       	brlt	.+0      	; 0x5e <_ZN9KnockLock11loadPatternEv+0x5e>
  5e:	80 e1       	ldi	r24, 0x10	; 16
  60:	90 e0       	ldi	r25, 0x00	; 0
  62:	9b 87       	std	Y+11, r25	; 0x0b
  64:	8a 87       	std	Y+10, r24	; 0x0a
  66:	7e 01       	movw	r14, r28
  68:	bf e0       	ldi	r27, 0x0F	; 15
  6a:	eb 0e       	add	r14, r27
  6c:	f1 1c       	adc	r15, r1
  6e:	00 e0       	ldi	r16, 0x00	; 0
  70:	10 e0       	ldi	r17, 0x00	; 0
  72:	8a 85       	ldd	r24, Y+10	; 0x0a
  74:	9b 85       	ldd	r25, Y+11	; 0x0b
  76:	08 17       	cp	r16, r24
  78:	19 07       	cpc	r17, r25
  7a:	04 f4       	brge	.+0      	; 0x7c <_ZN9KnockLock11loadPatternEv+0x7c>
  7c:	a8 85       	ldd	r26, Y+8	; 0x08
  7e:	b9 85       	ldd	r27, Y+9	; 0x09
  80:	ed 91       	ld	r30, X+
  82:	fc 91       	ld	r31, X
  84:	11 97       	sbiw	r26, 0x01	; 1
  86:	b4 97       	sbiw	r30, 0x24	; 36
  88:	80 81       	ld	r24, Z
  8a:	91 81       	ldd	r25, Z+1	; 0x01
  8c:	8a 0f       	add	r24, r26
  8e:	9b 1f       	adc	r25, r27
  90:	dc 01       	movw	r26, r24
  92:	ed 91       	ld	r30, X+
  94:	fc 91       	ld	r31, X
  96:	06 80       	ldd	r0, Z+6	; 0x06
  98:	f7 81       	ldd	r31, Z+7	; 0x07
  9a:	e0 2d       	mov	r30, r0
  9c:	09 95       	icall
  9e:	f7 01       	movw	r30, r14
  a0:	81 93       	st	Z+, r24
  a2:	7f 01       	movw	r14, r30
  a4:	0f 5f       	subi	r16, 0xFF	; 255
  a6:	1f 4f       	sbci	r17, 0xFF	; 255
  a8:	00 c0       	rjmp	.+0      	; 0xaa <_ZN9KnockLock11loadPatternEv+0xaa>
  aa:	df 91       	pop	r29
  ac:	cf 91       	pop	r28
  ae:	1f 91       	pop	r17
  b0:	0f 91       	pop	r16
  b2:	ff 90       	pop	r15
  b4:	ef 90       	pop	r14
  b6:	08 95       	ret

Disassembly of section .text._ZN9KnockLock10initializeEv:

00000000 <_ZN9KnockLock10initializeEv>:
   0:	cf 93       	push	r28
   2:	df 93       	push	r29
   4:	ec 01       	movw	r28, r24
   6:	60 e0       	ldi	r22, 0x00	; 0
   8:	88 81       	ld	r24, Y
   a:	0e 94 00 00 	call	0	; 0x0 <_ZN9KnockLock10initializeEv>
   e:	60 e0       	ldi	r22, 0x00	; 0
  10:	8a 81       	ldd	r24, Y+2	; 0x02
  12:	0e 94 00 00 	call	0	; 0x0 <_ZN9KnockLock10initializeEv>
  16:	61 e0       	ldi	r22, 0x01	; 1
  18:	8c 81       	ldd	r24, Y+4	; 0x04
  1a:	0e 94 00 00 	call	0	; 0x0 <_ZN9KnockLock10initializeEv>
  1e:	ce 01       	movw	r24, r28
  20:	df 91       	pop	r29
  22:	cf 91       	pop	r28
  24:	0c 94 00 00 	jmp	0	; 0x0 <_ZN9KnockLock10initializeEv>

Disassembly of section .text._ZN9KnockLock11savePatternEv:

00000000 <_ZN9KnockLock11savePatternEv>:
   0:	af 92       	push	r10
   2:	bf 92       	push	r11
   4:	cf 92       	push	r12
   6:	df 92       	push	r13
   8:	ef 92       	push	r14
   a:	ff 92       	push	r15
   c:	0f 93       	push	r16
   e:	1f 93       	push	r17
  10:	cf 93       	push	r28
  12:	df 93       	push	r29
  14:	ec 01       	movw	r28, r24
  16:	a8 85       	ldd	r26, Y+8	; 0x08
  18:	b9 85       	ldd	r27, Y+9	; 0x09
  1a:	ed 91       	ld	r30, X+
  1c:	fc 91       	ld	r31, X
  1e:	11 97       	sbiw	r26, 0x01	; 1
  20:	b8 97       	sbiw	r30, 0x28	; 40
  22:	80 81       	ld	r24, Z
  24:	91 81       	ldd	r25, Z+1	; 0x01
  26:	8a 0f       	add	r24, r26
  28:	9b 1f       	adc	r25, r27
  2a:	dc 01       	movw	r26, r24
  2c:	ed 91       	ld	r30, X+
  2e:	fc 91       	ld	r31, X
  30:	01 90       	ld	r0, Z+
  32:	f0 81       	ld	r31, Z
  34:	e0 2d       	mov	r30, r0
  36:	60 e0       	ldi	r22, 0x00	; 0
  38:	70 e0       	ldi	r23, 0x00	; 0
  3a:	09 95       	icall
  3c:	a8 85       	ldd	r26, Y+8	; 0x08
  3e:	b9 85       	ldd	r27, Y+9	; 0x09
  40:	ed 91       	ld	r30, X+
  42:	fc 91       	ld	r31, X
  44:	11 97       	sbiw	r26, 0x01	; 1
  46:	b2 97       	sbiw	r30, 0x22	; 34
  48:	80 81       	ld	r24, Z
  4a:	91 81       	ldd	r25, Z+1	; 0x01
  4c:	8a 0f       	add	r24, r26
  4e:	9b 1f       	adc	r25, r27
  50:	dc 01       	movw	r26, r24
  52:	ed 91       	ld	r30, X+
  54:	fc 91       	ld	r31, X
  56:	04 84       	ldd	r0, Z+12	; 0x0c
  58:	f5 85       	ldd	r31, Z+13	; 0x0d
  5a:	e0 2d       	mov	r30, r0
  5c:	6c 85       	ldd	r22, Y+12	; 0x0c
  5e:	09 95       	icall
  60:	8e 01       	movw	r16, r28
  62:	01 5e       	subi	r16, 0xE1	; 225
  64:	1f 4f       	sbci	r17, 0xFF	; 255
  66:	5e 01       	movw	r10, r28
  68:	bf e0       	ldi	r27, 0x0F	; 15
  6a:	ab 0e       	add	r10, r27
  6c:	b1 1c       	adc	r11, r1
  6e:	e1 2c       	mov	r14, r1
  70:	f1 2c       	mov	r15, r1
  72:	8c 85       	ldd	r24, Y+12	; 0x0c
  74:	9d 85       	ldd	r25, Y+13	; 0x0d
  76:	e8 16       	cp	r14, r24
  78:	f9 06       	cpc	r15, r25
  7a:	04 f4       	brge	.+0      	; 0x7c <_ZN9KnockLock11savePatternEv+0x7c>
  7c:	a8 85       	ldd	r26, Y+8	; 0x08
  7e:	b9 85       	ldd	r27, Y+9	; 0x09
  80:	ed 91       	ld	r30, X+
  82:	fc 91       	ld	r31, X
  84:	11 97       	sbiw	r26, 0x01	; 1
  86:	b2 97       	sbiw	r30, 0x22	; 34
  88:	80 81       	ld	r24, Z
  8a:	91 81       	ldd	r25, Z+1	; 0x01
  8c:	8a 0f       	add	r24, r26
  8e:	9b 1f       	adc	r25, r27
  90:	dc 01       	movw	r26, r24
  92:	ed 91       	ld	r30, X+
  94:	fc 91       	ld	r31, X
  96:	04 84       	ldd	r0, Z+12	; 0x0c
  98:	f5 85       	ldd	r31, Z+13	; 0x0d
  9a:	e0 2d       	mov	r30, r0
  9c:	d8 01       	movw	r26, r16
  9e:	6c 91       	ld	r22, X
  a0:	09 95       	icall
  a2:	f8 01       	movw	r30, r16
  a4:	80 81       	ld	r24, Z
  a6:	0e 5f       	subi	r16, 0xFE	; 254
  a8:	1f 4f       	sbci	r17, 0xFF	; 255
  aa:	f5 01       	movw	r30, r10
  ac:	81 93       	st	Z+, r24
  ae:	5f 01       	movw	r10, r30
  b0:	ff ef       	ldi	r31, 0xFF	; 255
  b2:	ef 1a       	sub	r14, r31
  b4:	ff 0a       	sbc	r15, r31
  b6:	00 c0       	rjmp	.+0      	; 0xb8 <_ZN9KnockLock11savePatternEv+0xb8>
  b8:	9b 87       	std	Y+11, r25	; 0x0b
  ba:	8a 87       	std	Y+10, r24	; 0x0a
  bc:	8e 81       	ldd	r24, Y+6	; 0x06
  be:	9f 81       	ldd	r25, Y+7	; 0x07
  c0:	dc 01       	movw	r26, r24
  c2:	ed 91       	ld	r30, X+
  c4:	fc 91       	ld	r31, X
  c6:	01 90       	ld	r0, Z+
  c8:	f0 81       	ld	r31, Z
  ca:	e0 2d       	mov	r30, r0
  cc:	65 e0       	ldi	r22, 0x05	; 5
  ce:	09 95       	icall
  d0:	ce 01       	movw	r24, r28
  d2:	df 91       	pop	r29
  d4:	cf 91       	pop	r28
  d6:	1f 91       	pop	r17
  d8:	0f 91       	pop	r16
  da:	ff 90       	pop	r15
  dc:	ef 90       	pop	r14
  de:	df 90       	pop	r13
  e0:	cf 90       	pop	r12
  e2:	bf 90       	pop	r11
  e4:	af 90       	pop	r10
  e6:	0c 94 00 00 	jmp	0	; 0x0 <_ZN9KnockLock11savePatternEv>

Disassembly of section .text._ZN9KnockLock14validateKnocksEv:

00000000 <_ZN9KnockLock14validateKnocksEv>:
   0:	cf 93       	push	r28
   2:	df 93       	push	r29
   4:	fc 01       	movw	r30, r24
   6:	24 85       	ldd	r18, Z+12	; 0x0c
   8:	35 85       	ldd	r19, Z+13	; 0x0d
   a:	23 2b       	or	r18, r19
   c:	01 f0       	breq	.+0      	; 0xe <_ZN9KnockLock14validateKnocksEv+0xe>
   e:	ec 01       	movw	r28, r24
  10:	0e 94 00 00 	call	0	; 0x0 <_ZN9KnockLock14validateKnocksEv>
  14:	8e 85       	ldd	r24, Y+14	; 0x0e
  16:	88 23       	and	r24, r24
  18:	01 f0       	breq	.+0      	; 0x1a <_ZN9KnockLock14validateKnocksEv+0x1a>
  1a:	ce 01       	movw	r24, r28
  1c:	0e 94 00 00 	call	0	; 0x0 <_ZN9KnockLock14validateKnocksEv>
  20:	00 c0       	rjmp	.+0      	; 0x22 <_ZN9KnockLock14validateKnocksEv+0x22>
  22:	2c 85       	ldd	r18, Y+12	; 0x0c
  24:	3d 85       	ldd	r19, Y+13	; 0x0d
  26:	8a 85       	ldd	r24, Y+10	; 0x0a
  28:	9b 85       	ldd	r25, Y+11	; 0x0b
  2a:	28 17       	cp	r18, r24
  2c:	39 07       	cpc	r19, r25
  2e:	01 f4       	brne	.+0      	; 0x30 <_ZN9KnockLock14validateKnocksEv+0x30>
  30:	ce 01       	movw	r24, r28
  32:	df 91       	pop	r29
  34:	cf 91       	pop	r28
  36:	0c 94 00 00 	jmp	0	; 0x0 <_ZN9KnockLock14validateKnocksEv>
  3a:	80 e0       	ldi	r24, 0x00	; 0
  3c:	df 91       	pop	r29
  3e:	cf 91       	pop	r28
  40:	08 95       	ret

Disassembly of section .text._ZN9KnockLock6listenEm:

00000000 <_ZN9KnockLock6listenEm>:
   0:	8f 92       	push	r8
   2:	9f 92       	push	r9
   4:	af 92       	push	r10
   6:	bf 92       	push	r11
   8:	cf 92       	push	r12
   a:	df 92       	push	r13
   c:	ef 92       	push	r14
   e:	ff 92       	push	r15
  10:	1f 93       	push	r17
  12:	cf 93       	push	r28
  14:	df 93       	push	r29
  16:	ec 01       	movw	r28, r24
  18:	6a 01       	movw	r12, r20
  1a:	7b 01       	movw	r14, r22
  1c:	0e 94 00 00 	call	0	; 0x0 <_ZN9KnockLock6listenEm>
  20:	4b 01       	movw	r8, r22
  22:	5c 01       	movw	r10, r24
  24:	8a 81       	ldd	r24, Y+2	; 0x02
  26:	0e 94 00 00 	call	0	; 0x0 <_ZN9KnockLock6listenEm>
  2a:	01 97       	sbiw	r24, 0x01	; 1
  2c:	01 f4       	brne	.+0      	; 0x2e <_ZN9KnockLock6listenEm+0x2e>
  2e:	ce 01       	movw	r24, r28
  30:	0e 94 00 00 	call	0	; 0x0 <_ZN9KnockLock6listenEm>
  34:	88 81       	ld	r24, Y
  36:	0e 94 00 00 	call	0	; 0x0 <_ZN9KnockLock6listenEm>
  3a:	01 97       	sbiw	r24, 0x01	; 1
  3c:	01 f4       	brne	.+0      	; 0x3e <_ZN9KnockLock6listenEm+0x3e>
  3e:	ce 01       	movw	r24, r28
  40:	0e 94 00 00 	call	0	; 0x0 <_ZN9KnockLock6listenEm>
  44:	ce 01       	movw	r24, r28
  46:	0e 94 00 00 	call	0	; 0x0 <_ZN9KnockLock6listenEm>
  4a:	18 2f       	mov	r17, r24
  4c:	88 23       	and	r24, r24
  4e:	01 f0       	breq	.+0      	; 0x50 <_ZN9KnockLock6listenEm+0x50>
  50:	8e 81       	ldd	r24, Y+6	; 0x06
  52:	9f 81       	ldd	r25, Y+7	; 0x07
  54:	dc 01       	movw	r26, r24
  56:	ed 91       	ld	r30, X+
  58:	fc 91       	ld	r31, X
  5a:	01 90       	ld	r0, Z+
  5c:	f0 81       	ld	r31, Z
  5e:	e0 2d       	mov	r30, r0
  60:	61 e0       	ldi	r22, 0x01	; 1
  62:	09 95       	icall
  64:	00 c0       	rjmp	.+0      	; 0x66 <_ZN9KnockLock6listenEm+0x66>
  66:	8e 85       	ldd	r24, Y+14	; 0x0e
  68:	88 23       	and	r24, r24
  6a:	01 f0       	breq	.+0      	; 0x6c <_ZN9KnockLock6listenEm+0x6c>
  6c:	ce 01       	movw	r24, r28
  6e:	0e 94 00 00 	call	0	; 0x0 <_ZN9KnockLock6listenEm>
  72:	00 c0       	rjmp	.+0      	; 0x74 <_ZN9KnockLock6listenEm+0x74>
  74:	8e 81       	ldd	r24, Y+6	; 0x06
  76:	9f 81       	ldd	r25, Y+7	; 0x07
  78:	dc 01       	movw	r26, r24
  7a:	ed 91       	ld	r30, X+
  7c:	fc 91       	ld	r31, X
  7e:	01 90       	ld	r0, Z+
  80:	f0 81       	ld	r31, Z
  82:	e0 2d       	mov	r30, r0
  84:	60 e0       	ldi	r22, 0x00	; 0
  86:	09 95       	icall
  88:	c1 14       	cp	r12, r1
  8a:	d1 04       	cpc	r13, r1
  8c:	e1 04       	cpc	r14, r1
  8e:	f1 04       	cpc	r15, r1
  90:	01 f0       	breq	.+0      	; 0x92 <_ZN9KnockLock6listenEm+0x92>
  92:	0e 94 00 00 	call	0	; 0x0 <_ZN9KnockLock6listenEm>
  96:	dc 01       	movw	r26, r24
  98:	cb 01       	movw	r24, r22
  9a:	88 19       	sub	r24, r8
  9c:	99 09       	sbc	r25, r9
  9e:	aa 09       	sbc	r26, r10
  a0:	bb 09       	sbc	r27, r11
  a2:	8c 15       	cp	r24, r12
  a4:	9d 05       	cpc	r25, r13
  a6:	ae 05       	cpc	r26, r14
  a8:	bf 05       	cpc	r27, r15
  aa:	00 f4       	brcc	.+0      	; 0xac <_ZN9KnockLock6listenEm+0xac>
  ac:	00 c0       	rjmp	.+0      	; 0xae <_ZN9KnockLock6listenEm+0xae>
  ae:	10 e0       	ldi	r17, 0x00	; 0
  b0:	81 2f       	mov	r24, r17
  b2:	df 91       	pop	r29
  b4:	cf 91       	pop	r28
  b6:	1f 91       	pop	r17
  b8:	ff 90       	pop	r15
  ba:	ef 90       	pop	r14
  bc:	df 90       	pop	r13
  be:	cf 90       	pop	r12
  c0:	bf 90       	pop	r11
  c2:	af 90       	pop	r10
  c4:	9f 90       	pop	r9
  c6:	8f 90       	pop	r8
  c8:	08 95       	ret

Feedbacker.o:     file format elf32-avr

Sections:
Idx Name          Size      VMA       LMA       File off  Algn
  0 .text         00000000  00000000  00000000  00000034  2**0
                  CONTENTS, ALLOC, LOAD, READONLY, CODE
  1 .data         00000000  00000000  00000000  00000034  2**0
                  CONTENTS, ALLOC, LOAD, DATA
  2 .bss          00000000  00000000  00000000  00000034  2**0
                  ALLOC
  3 .comment      00000012  00000000  00000000  00000034  2**0
                  CONTENTS, READONLY
